Certificate:
    Data:
        Version: 3 (0x2)
        Serial Number: 1 (0x1)
    Signature Algorithm: sha256WithRSAEncryption
        Issuer: C=CN, ST=Zhejiang, L=Hangzhou, O=PCA, OU=Devops, CN=*.pca.com
        Validity
            Not Before: May  3 12:06:12 2022 GMT
            Not After : May  3 12:06:12 2023 GMT
        Subject: C=CN, ST=Chongqing, L=Chongqing, O=Season, OU=Devops, CN=*.season.com/emailAddress=info@season.com
        Subject Public Key Info:
            Public Key Algorithm: rsaEncryption
                Public-Key: (1024 bit)
                Modulus:
                    00:cb:7f:a2:17:6b:cc:89:e8:1d:2e:30:e0:49:84:
                    5e:a6:ba:c3:1a:a8:69:8a:22:2a:93:2f:4b:13:e0:
                    3b:f4:2d:1e:19:76:f7:c4:1d:51:1d:5a:a5:48:08:
                    95:a2:c7:4f:f2:81:32:7e:dd:8a:73:d7:4f:51:67:
                    da:cb:f4:25:aa:dc:a3:44:01:45:1b:3d:d6:e4:00:
                    3b:ff:0f:4d:db:98:82:af:da:bf:c6:ac:ca:7c:4b:
                    5d:a0:22:34:41:62:13:ef:86:ae:fb:91:e7:38:59:
                    85:52:c9:b6:c3:5f:d9:08:69:96:6e:3e:cc:14:77:
                    59:c9:87:56:7d:af:0f:7c:3b
                Exponent: 65537 (0x10001)
        X509v3 extensions:
            X509v3 Basic Constraints: 
                CA:FALSE
            Netscape Comment: 
                OpenSSL Generated Certificate
            X509v3 Subject Key Identifier: 
                4B:63:26:AB:08:BA:1F:CD:42:4E:5C:42:CF:A9:73:5F:18:79:6C:83
            X509v3 Authority Key Identifier: 
                keyid:7C:66:E4:03:0D:5A:1F:16:C7:33:84:EE:7C:53:E7:36:8C:10:1C:15

    Signature Algorithm: sha256WithRSAEncryption
         be:ce:f6:fe:c7:50:c4:80:e5:15:d6:18:12:5d:87:5e:8b:ad:
         55:4d:a3:14:20:bf:88:95:7b:de:e4:bd:39:12:30:07:59:c5:
         d1:89:d7:f3:1a:13:97:a7:d2:2e:07:89:14:27:a4:98:71:1c:
         0e:05:6a:03:40:85:0d:a1:07:dc:0c:b9:75:6a:a2:c6:a8:ed:
         64:b0:ec:ab:fb:d9:b9:03:e0:07:8d:8a:fe:b6:5d:d9:d0:85:
         31:0f:9b:58:27:fd:63:e6:0c:45:e7:55:99:ec:06:4c:4b:01:
         ac:cf:2d:78:52:62:de:78:7c:70:12:96:f9:88:9f:02:34:1f:
         31:3f
-----BEGIN CERTIFICATE-----
MIIC5jCCAk+gAwIBAgIBATANBgkqhkiG9w0BAQsFADBmMQswCQYDVQQGEwJDTjER
MA8GA1UECAwIWmhlamlhbmcxETAPBgNVBAcMCEhhbmd6aG91MQwwCgYDVQQKDANQ
Q0ExDzANBgNVBAsMBkRldm9wczESMBAGA1UEAwwJKi5wY2EuY29tMB4XDTIyMDUw
MzEyMDYxMloXDTIzMDUwMzEyMDYxMlowgY4xCzAJBgNVBAYTAkNOMRIwEAYDVQQI
DAlDaG9uZ3FpbmcxEjAQBgNVBAcMCUNob25ncWluZzEPMA0GA1UECgwGU2Vhc29u
MQ8wDQYDVQQLDAZEZXZvcHMxFTATBgNVBAMMDCouc2Vhc29uLmNvbTEeMBwGCSqG
SIb3DQEJARYPaW5mb0BzZWFzb24uY29tMIGfMA0GCSqGSIb3DQEBAQUAA4GNADCB
iQKBgQDLf6IXa8yJ6B0uMOBJhF6musMaqGmKIiqTL0sT4Dv0LR4ZdvfEHVEdWqVI
CJWix0/ygTJ+3Ypz109RZ9rL9CWq3KNEAUUbPdbkADv/D03bmIKv2r/GrMp8S12g
IjRBYhPvhq77kec4WYVSybbDX9kIaZZuPswUd1nJh1Z9rw98OwIDAQABo3sweTAJ
BgNVHRMEAjAAMCwGCWCGSAGG+EIBDQQfFh1PcGVuU1NMIEdlbmVyYXRlZCBDZXJ0
aWZpY2F0ZTAdBgNVHQ4EFgQUS2Mmqwi6H81CTlxCz6lzXxh5bIMwHwYDVR0jBBgw
FoAUfGbkAw1aHxbHM4TufFPnNowQHBUwDQYJKoZIhvcNAQELBQADgYEAvs72/sdQ
xIDlFdYYEl2HXoutVU2jFCC/iJV73uS9ORIwB1nF0YnX8xoTl6fSLgeJFCekmHEc
DgVqA0CFDaEH3Ay5dWqixqjtZLDsq/vZuQPgB42K/rZd2dCFMQ+bWCf9Y+YMRedV
mewGTEsBrM8teFJi3nh8cBKW+YifAjQfMT8=
-----END CERTIFICATE-----
